target datalayout = "e-m:e-p270:32:32-p271:32:32-p272:64:64-i64:64-i128:128-f80:128-n8:16:32:64-S128"
target triple = "x86_64-pc-linux-gnu"

%struct.Aig_Tsi_t_ = type { ptr, i32, ptr, ptr, ptr, i32 }
%struct.Aig_Man_t_ = type { ptr, ptr, ptr, ptr, ptr, ptr, ptr, %struct.Aig_Obj_t_, i32, i32, i32, i32, i32, i32, [7 x i32], i32, ptr, i32, ptr, i32, ptr, i32, i32, i32, ptr, i32, i32, i32, i32, i32, ptr, ptr, i32, ptr, ptr, i32, ptr, ptr, i32, i32, i32, ptr, ptr, ptr, ptr, ptr, ptr, ptr, ptr, ptr, ptr, ptr, ptr, ptr, ptr, i32, ptr, ptr, ptr, ptr, i32, i64, i64, i64, ptr, ptr }
%struct.Aig_Obj_t_ = type { %union.anon, ptr, ptr, i64, i32, i32, %union.anon.0 }
%union.anon = type { ptr }
%union.anon.0 = type { ptr }

@.str = private unnamed_addr constant [2 x i8] c"0\00", align 1
@.str.1 = private unnamed_addr constant [2 x i8] c"1\00", align 1
@.str.2 = private unnamed_addr constant [2 x i8] c"x\00", align 1
@.str.3 = private unnamed_addr constant [24 x i8] c" (0=%5d, 1=%5d, x=%5d)\0A\00", align 1

; Function Attrs: inlinehint nounwind uwtable
define internal i32 @Abc_InfoHasBit(ptr noundef %0, i32 noundef %1) #4 {
  %3 = alloca ptr, align 8
  %4 = alloca i32, align 4
  store ptr %0, ptr %3, align 8, !tbaa !41
  store i32 %1, ptr %4, align 4, !tbaa !21
  %5 = load ptr, ptr %3, align 8, !tbaa !41
  %6 = load i32, ptr %4, align 4, !tbaa !21
  %7 = ashr i32 %6, 5
  %8 = sext i32 %7 to i64
  %9 = getelementptr inbounds i32, ptr %5, i64 %8
  %10 = load i32, ptr %9, align 4, !tbaa !21
  %11 = load i32, ptr %4, align 4, !tbaa !21
  %12 = and i32 %11, 31
  %13 = shl i32 1, %12
  %14 = and i32 %10, %13
  %15 = icmp ugt i32 %14, 0
  %16 = zext i1 %15 to i32
  ret i32 %16
}

; Function Attrs: inlinehint nounwind uwtable
define internal i32 @Aig_ManRegNum(ptr noundef %0) #4 {
  %2 = alloca ptr, align 8
  store ptr %0, ptr %2, align 8, !tbaa !3
  %3 = load ptr, ptr %2, align 8, !tbaa !3
  %4 = getelementptr inbounds nuw %struct.Aig_Man_t_, ptr %3, i32 0, i32 8
  %5 = load i32, ptr %4, align 8, !tbaa !22
  ret i32 %5
}

; Function Attrs: nounwind uwtable
define void @Aig_TsiStatePrint(ptr noundef %0, ptr noundef %1) #0 {
  %3 = alloca ptr, align 8
  %4 = alloca ptr, align 8
  %5 = alloca i32, align 4
  %6 = alloca i32, align 4
  %7 = alloca i32, align 4
  %8 = alloca i32, align 4
  %9 = alloca i32, align 4
  store ptr %0, ptr %3, align 8, !tbaa !8
  store ptr %1, ptr %4, align 8, !tbaa !41
  call void @llvm.lifetime.start.p0(i64 4, ptr %5) #9
  call void @llvm.lifetime.start.p0(i64 4, ptr %6) #9
  call void @llvm.lifetime.start.p0(i64 4, ptr %7) #9
  store i32 0, ptr %7, align 4, !tbaa !21
  call void @llvm.lifetime.start.p0(i64 4, ptr %8) #9
  store i32 0, ptr %8, align 4, !tbaa !21
  call void @llvm.lifetime.start.p0(i64 4, ptr %9) #9
  store i32 0, ptr %9, align 4, !tbaa !21
  store i32 0, ptr %5, align 4, !tbaa !21
  br label %10

10:                                               ; preds = %53, %2
  %11 = load i32, ptr %5, align 4, !tbaa !21
  %12 = load ptr, ptr %3, align 8, !tbaa !8
  %13 = getelementptr inbounds nuw %struct.Aig_Tsi_t_, ptr %12, i32 0, i32 0
  %14 = load ptr, ptr %13, align 8, !tbaa !10
  %15 = call i32 @Aig_ManRegNum(ptr noundef %14)
  %16 = icmp slt i32 %11, %15
  br i1 %16, label %17, label %56

17:                                               ; preds = %10
  %18 = load ptr, ptr %4, align 8, !tbaa !41
  %19 = load i32, ptr %5, align 4, !tbaa !21
  %20 = mul nsw i32 2, %19
  %21 = add nsw i32 %20, 1
  %22 = call i32 @Abc_InfoHasBit(ptr noundef %18, i32 noundef %21)
  %23 = shl i32 %22, 1
  %24 = load ptr, ptr %4, align 8, !tbaa !41
  %25 = load i32, ptr %5, align 4, !tbaa !21
  %26 = mul nsw i32 2, %25
  %27 = call i32 @Abc_InfoHasBit(ptr noundef %24, i32 noundef %26)
  %28 = or i32 %23, %27
  store i32 %28, ptr %6, align 4, !tbaa !21
  %29 = load i32, ptr %6, align 4, !tbaa !21
  %30 = icmp eq i32 %29, 1
  br i1 %30, label %31, label %35

31:                                               ; preds = %17
  %32 = call i32 (ptr, ...) @printf(ptr noundef @.str)
  %33 = load i32, ptr %7, align 4, !tbaa !21
  %34 = add nsw i32 %33, 1
  store i32 %34, ptr %7, align 4, !tbaa !21
  br label %52

35:                                               ; preds = %17
  %36 = load i32, ptr %6, align 4, !tbaa !21
  %37 = icmp eq i32 %36, 2
  br i1 %37, label %38, label %42

38:                                               ; preds = %35
  %39 = call i32 (ptr, ...) @printf(ptr noundef @.str.1)
  %40 = load i32, ptr %8, align 4, !tbaa !21
  %41 = add nsw i32 %40, 1
  store i32 %41, ptr %8, align 4, !tbaa !21
  br label %51

42:                                               ; preds = %35
  %43 = load i32, ptr %6, align 4, !tbaa !21
  %44 = icmp eq i32 %43, 3
  br i1 %44, label %45, label %49

45:                                               ; preds = %42
  %46 = call i32 (ptr, ...) @printf(ptr noundef @.str.2)
  %47 = load i32, ptr %9, align 4, !tbaa !21
  %48 = add nsw i32 %47, 1
  store i32 %48, ptr %9, align 4, !tbaa !21
  br label %50

49:                                               ; preds = %42
  br label %50

50:                                               ; preds = %49, %45
  br label %51

51:                                               ; preds = %50, %38
  br label %52

52:                                               ; preds = %51, %31
  br label %53

53:                                               ; preds = %52
  %54 = load i32, ptr %5, align 4, !tbaa !21
  %55 = add nsw i32 %54, 1
  store i32 %55, ptr %5, align 4, !tbaa !21
  br label %10, !llvm.loop !45

56:                                               ; preds = %10
  %57 = load i32, ptr %7, align 4, !tbaa !21
  %58 = load i32, ptr %8, align 4, !tbaa !21
  %59 = load i32, ptr %9, align 4, !tbaa !21
  %60 = call i32 (ptr, ...) @printf(ptr noundef @.str.3, i32 noundef %57, i32 noundef %58, i32 noundef %59)
  call void @llvm.lifetime.end.p0(i64 4, ptr %9) #9
  call void @llvm.lifetime.end.p0(i64 4, ptr %8) #9
  call void @llvm.lifetime.end.p0(i64 4, ptr %7) #9
  call void @llvm.lifetime.end.p0(i64 4, ptr %6) #9
  call void @llvm.lifetime.end.p0(i64 4, ptr %5) #9
  ret void
}