; Function Attrs: nofree nounwind uwtable
define void @Aig_TsiStatePrint(ptr noundef readonly captures(none) %0, ptr noundef readonly captures(none) %1) local_unnamed_addr #8 {
  %3 = load ptr, ptr %0, align 8, !tbaa !3
  %4 = getelementptr i8, ptr %3, i64 104
  %.val26 = load i32, ptr %4, align 8, !tbaa !13
  %5 = icmp sgt i32 %.val26, 0
  br i1 %5, label %.lr.ph, label %._crit_edge

.lr.ph:                                           ; preds = %2, %25
  %.030 = phi i32 [ %.1, %25 ], [ 0, %2 ]
  %.01529 = phi i32 [ %.116, %25 ], [ 0, %2 ]
  %.01728 = phi i32 [ %.118, %25 ], [ 0, %2 ]
  %.01927 = phi i32 [ %26, %25 ], [ 0, %2 ]
  %6 = shl nuw nsw i32 %.01927, 1
  %7 = lshr i32 %.01927, 4
  %8 = zext nneg i32 %7 to i64
  %9 = getelementptr inbounds nuw i32, ptr %1, i64 %8
  %10 = load i32, ptr %9, align 4, !tbaa !36
  %11 = and i32 %6, 30
  %12 = or disjoint i32 %11, 1
  %13 = lshr i32 %10, %12
  %14 = shl nuw i32 %13, 1
  %15 = and i32 %14, 2
  %16 = lshr i32 %10, %11
  %17 = and i32 %16, 1
  %18 = or disjoint i32 %15, %17
  switch i32 %18, label %default.unreachable [
    i32 1, label %19
    i32 2, label %21
    i32 3, label %23
    i32 0, label %25
  ]

19:                                               ; preds = %.lr.ph
  %putchar22 = tail call i32 @putchar(i32 48)
  %20 = add nsw i32 %.01728, 1
  br label %25

21:                                               ; preds = %.lr.ph
  %putchar21 = tail call i32 @putchar(i32 49)
  %22 = add nsw i32 %.01529, 1
  br label %25

23:                                               ; preds = %.lr.ph
  %putchar = tail call i32 @putchar(i32 120)
  %24 = add nsw i32 %.030, 1
  br label %25

default.unreachable:                              ; preds = %.lr.ph
  unreachable

25:                                               ; preds = %.lr.ph, %19, %23, %21
  %.118 = phi i32 [ %20, %19 ], [ %.01728, %21 ], [ %.01728, %23 ], [ %.01728, %.lr.ph ]
  %.116 = phi i32 [ %.01529, %19 ], [ %22, %21 ], [ %.01529, %23 ], [ %.01529, %.lr.ph ]
  %.1 = phi i32 [ %.030, %19 ], [ %.030, %21 ], [ %24, %23 ], [ %.030, %.lr.ph ]
  %26 = add nuw nsw i32 %.01927, 1
  %27 = load ptr, ptr %0, align 8, !tbaa !3
  %28 = getelementptr i8, ptr %27, i64 104
  %.val = load i32, ptr %28, align 8, !tbaa !13
  %29 = icmp slt i32 %26, %.val
  br i1 %29, label %.lr.ph, label %._crit_edge, !llvm.loop !41

._crit_edge:                                      ; preds = %25, %2
  %.017.lcssa = phi i32 [ 0, %2 ], [ %.118, %25 ]
  %.015.lcssa = phi i32 [ 0, %2 ], [ %.116, %25 ]
  %.0.lcssa = phi i32 [ 0, %2 ], [ %.1, %25 ]
  %30 = tail call i32 (ptr, ...) @printf(ptr noundef nonnull dereferenceable(1) @.str.3, i32 noundef %.017.lcssa, i32 noundef %.015.lcssa, i32 noundef %.0.lcssa)
  ret void
}